target datalayout = "e-m:e-p270:32:32-p271:32:32-p272:64:64-i64:64-i128:128-f80:128-n8:16:32:64-S128"
target triple = "x86_64-pc-linux-gnu"

%struct.re_pattern_buffer = type { ptr, i32, i32, i32, i32, i32, i32, i32, i32, i32, i32, i32, i32, i32, ptr, ptr, ptr, ptr, i32, i32, i32, i32, i64, i64, i32, ptr, ptr, [256 x i8], ptr, ptr, i64, i64, i64, ptr }

; Function Attrs: nounwind sspstrong uwtable
define dso_local i32 @onig_renumber_name_table(ptr noundef %0, ptr noundef %1) #0 {
  %3 = alloca ptr, align 8
  %4 = alloca ptr, align 8
  %5 = alloca ptr, align 8
  store ptr %0, ptr %3, align 8, !tbaa !26
  store ptr %1, ptr %4, align 8, !tbaa !12
  call void @llvm.lifetime.start.p0(i64 8, ptr %5) #13
  %6 = load ptr, ptr %3, align 8, !tbaa !26
  %7 = getelementptr inbounds nuw %struct.re_pattern_buffer, ptr %6, i32 0, i32 17
  %8 = load ptr, ptr %7, align 8, !tbaa !28
  store ptr %8, ptr %5, align 8, !tbaa !32
  %9 = load ptr, ptr %5, align 8, !tbaa !32
  %10 = icmp ne ptr %9, null
  br i1 %10, label %11, label %16

11:                                               ; preds = %2
  %12 = load ptr, ptr %5, align 8, !tbaa !32
  %13 = load ptr, ptr %4, align 8, !tbaa !12
  %14 = ptrtoint ptr %13 to i64
  %15 = call i32 @rb_st_foreach(ptr noundef %12, ptr noundef @i_renumber_name, i64 noundef %14)
  br label %16

16:                                               ; preds = %11, %2
  call void @llvm.lifetime.end.p0(i64 8, ptr %5) #13
  ret i32 0
}