; Function Attrs: nounwind sspstrong uwtable
define dso_local noundef i32 @onig_renumber_name_table(ptr noundef readonly captures(none) %0, ptr noundef %1) local_unnamed_addr #5 {
  %3 = getelementptr inbounds nuw i8, ptr %0, i64 88
  %4 = load ptr, ptr %3, align 8, !tbaa !21
  %.not = icmp eq ptr %4, null
  br i1 %.not, label %8, label %5

5:                                                ; preds = %2
  %6 = ptrtoint ptr %1 to i64
  %7 = tail call i32 @rb_st_foreach(ptr noundef nonnull %4, ptr noundef nonnull @i_renumber_name, i64 noundef %6) #25
  br label %8

8:                                                ; preds = %5, %2
  ret i32 0
}